target datalayout = "e-m:e-p270:32:32-p271:32:32-p272:64:64-i64:64-i128:128-f80:128-n8:16:32:64-S128"
target triple = "x86_64-pc-linux-gnu"

%struct.FunctionCallInfoBaseData = type { ptr, ptr, ptr, i32, i8, i16, [0 x %struct.NullableDatum] }
%struct.NullableDatum = type { i64, i8 }
%struct.PgStat_TableStatus = type { i32, i8, ptr, %struct.PgStat_TableCounts, ptr }
%struct.PgStat_TableCounts = type { i64, i64, i64, i64, i64, i64, i64, i64, i8, i64, i64, i64, i64, i64 }

; Function Attrs: inlinehint nounwind uwtable
define internal i64 @Int64GetDatum(i64 noundef %0) #2 {
  %2 = alloca i64, align 8
  store i64 %0, ptr %2, align 8
  %3 = load i64, ptr %2, align 8
  ret i64 %3
}

; Function Attrs: inlinehint nounwind uwtable
define internal i32 @DatumGetObjectId(i64 noundef %0) #2 {
  %2 = alloca i64, align 8
  store i64 %0, ptr %2, align 8
  %3 = load i64, ptr %2, align 8
  %4 = trunc i64 %3 to i32
  ret i32 %4
}

; Function Attrs: nounwind uwtable
define dso_local i64 @pg_stat_get_xact_tuples_returned(ptr noundef %0) #0 {
  %2 = alloca ptr, align 8
  %3 = alloca i32, align 4
  %4 = alloca i64, align 8
  %5 = alloca ptr, align 8
  store ptr %0, ptr %2, align 8
  call void @llvm.lifetime.start.p0(i64 4, ptr %3) #10
  %6 = load ptr, ptr %2, align 8
  %7 = getelementptr inbounds nuw %struct.FunctionCallInfoBaseData, ptr %6, i32 0, i32 6
  %8 = getelementptr inbounds [0 x %struct.NullableDatum], ptr %7, i64 0, i64 0
  %9 = getelementptr inbounds nuw %struct.NullableDatum, ptr %8, i32 0, i32 0
  %10 = load i64, ptr %9, align 8
  %11 = call i32 @DatumGetObjectId(i64 noundef %10)
  store i32 %11, ptr %3, align 4
  call void @llvm.lifetime.start.p0(i64 8, ptr %4) #10
  call void @llvm.lifetime.start.p0(i64 8, ptr %5) #10
  %12 = load i32, ptr %3, align 4
  %13 = call ptr @find_tabstat_entry(i32 noundef %12)
  store ptr %13, ptr %5, align 8
  %14 = icmp eq ptr %13, null
  br i1 %14, label %15, label %16

15:                                               ; preds = %1
  store i64 0, ptr %4, align 8
  br label %21

16:                                               ; preds = %1
  %17 = load ptr, ptr %5, align 8
  %18 = getelementptr inbounds nuw %struct.PgStat_TableStatus, ptr %17, i32 0, i32 3
  %19 = getelementptr inbounds nuw %struct.PgStat_TableCounts, ptr %18, i32 0, i32 1
  %20 = load i64, ptr %19, align 8
  store i64 %20, ptr %4, align 8
  br label %21

21:                                               ; preds = %16, %15
  %22 = load i64, ptr %4, align 8
  %23 = call i64 @Int64GetDatum(i64 noundef %22)
  call void @llvm.lifetime.end.p0(i64 8, ptr %5) #10
  call void @llvm.lifetime.end.p0(i64 8, ptr %4) #10
  call void @llvm.lifetime.end.p0(i64 4, ptr %3) #10
  ret i64 %23
}